target datalayout = "e-m:e-p270:32:32-p271:32:32-p272:64:64-i64:64-i128:128-f80:128-n8:16:32:64-S128"
target triple = "x86_64-pc-linux-gnu"

%struct.MultirangeType = type { i32, i32, i32 }
%struct.RangeBound = type { i64, i8, i8, i8 }

; Function Attrs: inlinehint nounwind uwtable
define internal i64 @BoolGetDatum(i1 noundef zeroext %0) #2 {
  %2 = alloca i8, align 1
  %3 = zext i1 %0 to i8
  store i8 %3, ptr %2, align 1
  %4 = load i8, ptr %2, align 1, !range !16, !noundef !17
  %5 = trunc i8 %4 to i1
  %6 = select i1 %5, i32 1, i32 0
  %7 = sext i32 %6 to i64
  ret i64 %7
}

; Function Attrs: nounwind uwtable
define dso_local zeroext i1 @range_overright_multirange_internal(ptr noundef %0, ptr noundef %1, ptr noundef %2) #0 {
  %4 = alloca i1, align 1
  %5 = alloca ptr, align 8
  %6 = alloca ptr, align 8
  %7 = alloca ptr, align 8
  %8 = alloca %struct.RangeBound, align 8
  %9 = alloca %struct.RangeBound, align 8
  %10 = alloca %struct.RangeBound, align 8
  %11 = alloca %struct.RangeBound, align 8
  %12 = alloca i8, align 1
  %13 = alloca i32, align 4
  store ptr %0, ptr %5, align 8
  store ptr %1, ptr %6, align 8
  store ptr %2, ptr %7, align 8
  call void @llvm.lifetime.start.p0(i64 16, ptr %8) #9
  call void @llvm.lifetime.start.p0(i64 16, ptr %9) #9
  call void @llvm.lifetime.start.p0(i64 16, ptr %10) #9
  call void @llvm.lifetime.start.p0(i64 16, ptr %11) #9
  call void @llvm.lifetime.start.p0(i64 1, ptr %12) #9
  %14 = load ptr, ptr %6, align 8
  %15 = call signext i8 @range_get_flags(ptr noundef %14)
  %16 = sext i8 %15 to i32
  %17 = and i32 %16, 1
  %18 = icmp ne i32 %17, 0
  br i1 %18, label %24, label %19

19:                                               ; preds = %3
  %20 = load ptr, ptr %7, align 8
  %21 = getelementptr inbounds nuw %struct.MultirangeType, ptr %20, i32 0, i32 2
  %22 = load i32, ptr %21, align 4
  %23 = icmp eq i32 %22, 0
  br i1 %23, label %24, label %27

24:                                               ; preds = %19, %3
  %25 = call i64 @BoolGetDatum(i1 noundef zeroext false)
  %26 = icmp ne i64 %25, 0
  store i1 %26, ptr %4, align 1
  store i32 1, ptr %13, align 4
  br label %35

27:                                               ; preds = %19
  %28 = load ptr, ptr %5, align 8
  %29 = load ptr, ptr %6, align 8
  call void @range_deserialize(ptr noundef %28, ptr noundef %29, ptr noundef %8, ptr noundef %9, ptr noundef %12)
  %30 = load ptr, ptr %5, align 8
  %31 = load ptr, ptr %7, align 8
  call void @multirange_get_bounds(ptr noundef %30, ptr noundef %31, i32 noundef 0, ptr noundef %10, ptr noundef %11)
  %32 = load ptr, ptr %5, align 8
  %33 = call i32 @range_cmp_bounds(ptr noundef %32, ptr noundef %8, ptr noundef %10)
  %34 = icmp sge i32 %33, 0
  store i1 %34, ptr %4, align 1
  store i32 1, ptr %13, align 4
  br label %35

35:                                               ; preds = %27, %24
  call void @llvm.lifetime.end.p0(i64 1, ptr %12) #9
  call void @llvm.lifetime.end.p0(i64 16, ptr %11) #9
  call void @llvm.lifetime.end.p0(i64 16, ptr %10) #9
  call void @llvm.lifetime.end.p0(i64 16, ptr %9) #9
  call void @llvm.lifetime.end.p0(i64 16, ptr %8) #9
  %36 = load i1, ptr %4, align 1
  ret i1 %36
}